target datalayout = "e-m:e-p270:32:32-p271:32:32-p272:64:64-i64:64-i128:128-f80:128-n8:16:32:64-S128"
target triple = "x86_64-unknown-linux-gnu"

%"class.std::set.0" = type { %"class.std::_Rb_tree.1" }
%"class.std::_Rb_tree.1" = type { %"struct.std::_Rb_tree<QuantLib::Observer *, QuantLib::Observer *, std::_Identity<QuantLib::Observer *>, std::less<QuantLib::Observer *>>::_Rb_tree_impl" }
%"struct.std::_Rb_tree<QuantLib::Observer *, QuantLib::Observer *, std::_Identity<QuantLib::Observer *>, std::less<QuantLib::Observer *>>::_Rb_tree_impl" = type { [8 x i8], %"struct.std::_Rb_tree_header" }
%"struct.std::_Rb_tree_header" = type { %"struct.std::_Rb_tree_node_base", i64 }
%"struct.std::_Rb_tree_node_base" = type { i32, ptr, ptr, ptr }
%"class.std::set" = type { %"class.std::_Rb_tree" }
%"class.std::_Rb_tree" = type { %"struct.std::_Rb_tree<boost::shared_ptr<QuantLib::Observable>, boost::shared_ptr<QuantLib::Observable>, std::_Identity<boost::shared_ptr<QuantLib::Observable>>, std::less<boost::shared_ptr<QuantLib::Observable>>>::_Rb_tree_impl" }
%"struct.std::_Rb_tree<boost::shared_ptr<QuantLib::Observable>, boost::shared_ptr<QuantLib::Observable>, std::_Identity<boost::shared_ptr<QuantLib::Observable>>, std::less<boost::shared_ptr<QuantLib::Observable>>>::_Rb_tree_impl" = type { [8 x i8], %"struct.std::_Rb_tree_header" }
%"class.boost::detail::shared_count" = type { ptr }
%"class.QuantLib::Observable" = type { ptr, %"class.std::set.0" }
%"class.QuantLib::StochasticProcess" = type { %"class.QuantLib::Observer", %"class.QuantLib::Observable", %"class.boost::shared_ptr.6" }
%"class.QuantLib::Observer" = type { ptr, %"class.std::set" }
%"class.boost::shared_ptr.6" = type { ptr, %"class.boost::detail::shared_count" }
%"class.boost::shared_ptr.8" = type { ptr, %"class.boost::detail::shared_count" }
%"class.QuantLib::G2ForwardProcess" = type { %"class.QuantLib::ForwardMeasureProcess", double, double, double, double, double, double, double, %"class.boost::shared_ptr.8", %"class.boost::shared_ptr.8" }
%"class.QuantLib::ForwardMeasureProcess" = type { %"class.QuantLib::StochasticProcess", double }

; Function Attrs: mustprogress nounwind uwtable
define noundef double @_ZNK8QuantLib16G2ForwardProcess4Mx_TEddd(ptr noundef nonnull align 8 dereferenceable(224) %this, double noundef %s, double noundef %t, double noundef %T) #1 align 2 {
entry:
  %this.addr = alloca ptr, align 8
  %s.addr = alloca double, align 8
  %t.addr = alloca double, align 8
  %T.addr = alloca double, align 8
  %M = alloca double, align 8
  store ptr %this, ptr %this.addr, align 8, !tbaa !3
  store double %s, ptr %s.addr, align 8, !tbaa !12
  store double %t, ptr %t.addr, align 8, !tbaa !12
  store double %T, ptr %T.addr, align 8, !tbaa !12
  %this1 = load ptr, ptr %this.addr, align 8
  call void @llvm.lifetime.start.p0(i64 8, ptr %M) #13
  %sigma_ = getelementptr inbounds nuw %"class.QuantLib::G2ForwardProcess", ptr %this1, i32 0, i32 4
  %0 = load double, ptr %sigma_, align 8, !tbaa !69
  %sigma_2 = getelementptr inbounds nuw %"class.QuantLib::G2ForwardProcess", ptr %this1, i32 0, i32 4
  %1 = load double, ptr %sigma_2, align 8, !tbaa !69
  %mul = fmul double %0, %1
  %a_ = getelementptr inbounds nuw %"class.QuantLib::G2ForwardProcess", ptr %this1, i32 0, i32 3
  %2 = load double, ptr %a_, align 8, !tbaa !68
  %a_3 = getelementptr inbounds nuw %"class.QuantLib::G2ForwardProcess", ptr %this1, i32 0, i32 3
  %3 = load double, ptr %a_3, align 8, !tbaa !68
  %mul4 = fmul double %2, %3
  %div = fdiv double %mul, %mul4
  %rho_ = getelementptr inbounds nuw %"class.QuantLib::G2ForwardProcess", ptr %this1, i32 0, i32 7
  %4 = load double, ptr %rho_, align 8, !tbaa !72
  %sigma_5 = getelementptr inbounds nuw %"class.QuantLib::G2ForwardProcess", ptr %this1, i32 0, i32 4
  %5 = load double, ptr %sigma_5, align 8, !tbaa !69
  %mul6 = fmul double %4, %5
  %eta_ = getelementptr inbounds nuw %"class.QuantLib::G2ForwardProcess", ptr %this1, i32 0, i32 6
  %6 = load double, ptr %eta_, align 8, !tbaa !71
  %mul7 = fmul double %mul6, %6
  %a_8 = getelementptr inbounds nuw %"class.QuantLib::G2ForwardProcess", ptr %this1, i32 0, i32 3
  %7 = load double, ptr %a_8, align 8, !tbaa !68
  %b_ = getelementptr inbounds nuw %"class.QuantLib::G2ForwardProcess", ptr %this1, i32 0, i32 5
  %8 = load double, ptr %b_, align 8, !tbaa !70
  %mul9 = fmul double %7, %8
  %div10 = fdiv double %mul7, %mul9
  %add = fadd double %div, %div10
  %a_11 = getelementptr inbounds nuw %"class.QuantLib::G2ForwardProcess", ptr %this1, i32 0, i32 3
  %9 = load double, ptr %a_11, align 8, !tbaa !68
  %fneg = fneg double %9
  %10 = load double, ptr %t.addr, align 8, !tbaa !12
  %11 = load double, ptr %s.addr, align 8, !tbaa !12
  %sub = fsub double %10, %11
  %mul12 = fmul double %fneg, %sub
  %call = call double @exp(double noundef %mul12) #13, !tbaa !48
  %sub13 = fsub double 1.000000e+00, %call
  %mul14 = fmul double %add, %sub13
  store double %mul14, ptr %M, align 8, !tbaa !12
  %sigma_15 = getelementptr inbounds nuw %"class.QuantLib::G2ForwardProcess", ptr %this1, i32 0, i32 4
  %12 = load double, ptr %sigma_15, align 8, !tbaa !69
  %sigma_16 = getelementptr inbounds nuw %"class.QuantLib::G2ForwardProcess", ptr %this1, i32 0, i32 4
  %13 = load double, ptr %sigma_16, align 8, !tbaa !69
  %mul17 = fmul double %12, %13
  %fneg18 = fneg double %mul17
  %a_19 = getelementptr inbounds nuw %"class.QuantLib::G2ForwardProcess", ptr %this1, i32 0, i32 3
  %14 = load double, ptr %a_19, align 8, !tbaa !68
  %mul20 = fmul double 2.000000e+00, %14
  %a_21 = getelementptr inbounds nuw %"class.QuantLib::G2ForwardProcess", ptr %this1, i32 0, i32 3
  %15 = load double, ptr %a_21, align 8, !tbaa !68
  %mul22 = fmul double %mul20, %15
  %div23 = fdiv double %fneg18, %mul22
  %a_24 = getelementptr inbounds nuw %"class.QuantLib::G2ForwardProcess", ptr %this1, i32 0, i32 3
  %16 = load double, ptr %a_24, align 8, !tbaa !68
  %fneg25 = fneg double %16
  %17 = load double, ptr %T.addr, align 8, !tbaa !12
  %18 = load double, ptr %t.addr, align 8, !tbaa !12
  %sub26 = fsub double %17, %18
  %mul27 = fmul double %fneg25, %sub26
  %call28 = call double @exp(double noundef %mul27) #13, !tbaa !48
  %a_29 = getelementptr inbounds nuw %"class.QuantLib::G2ForwardProcess", ptr %this1, i32 0, i32 3
  %19 = load double, ptr %a_29, align 8, !tbaa !68
  %fneg30 = fneg double %19
  %20 = load double, ptr %T.addr, align 8, !tbaa !12
  %21 = load double, ptr %t.addr, align 8, !tbaa !12
  %add31 = fadd double %20, %21
  %22 = load double, ptr %s.addr, align 8, !tbaa !12
  %23 = call double @llvm.fmuladd.f64(double -2.000000e+00, double %22, double %add31)
  %mul33 = fmul double %fneg30, %23
  %call34 = call double @exp(double noundef %mul33) #13, !tbaa !48
  %sub35 = fsub double %call28, %call34
  %24 = load double, ptr %M, align 8, !tbaa !12
  %25 = call double @llvm.fmuladd.f64(double %div23, double %sub35, double %24)
  store double %25, ptr %M, align 8, !tbaa !12
  %rho_37 = getelementptr inbounds nuw %"class.QuantLib::G2ForwardProcess", ptr %this1, i32 0, i32 7
  %26 = load double, ptr %rho_37, align 8, !tbaa !72
  %sigma_38 = getelementptr inbounds nuw %"class.QuantLib::G2ForwardProcess", ptr %this1, i32 0, i32 4
  %27 = load double, ptr %sigma_38, align 8, !tbaa !69
  %mul39 = fmul double %26, %27
  %eta_40 = getelementptr inbounds nuw %"class.QuantLib::G2ForwardProcess", ptr %this1, i32 0, i32 6
  %28 = load double, ptr %eta_40, align 8, !tbaa !71
  %mul41 = fmul double %mul39, %28
  %fneg42 = fneg double %mul41
  %b_43 = getelementptr inbounds nuw %"class.QuantLib::G2ForwardProcess", ptr %this1, i32 0, i32 5
  %29 = load double, ptr %b_43, align 8, !tbaa !70
  %a_44 = getelementptr inbounds nuw %"class.QuantLib::G2ForwardProcess", ptr %this1, i32 0, i32 3
  %30 = load double, ptr %a_44, align 8, !tbaa !68
  %b_45 = getelementptr inbounds nuw %"class.QuantLib::G2ForwardProcess", ptr %this1, i32 0, i32 5
  %31 = load double, ptr %b_45, align 8, !tbaa !70
  %add46 = fadd double %30, %31
  %mul47 = fmul double %29, %add46
  %div48 = fdiv double %fneg42, %mul47
  %b_49 = getelementptr inbounds nuw %"class.QuantLib::G2ForwardProcess", ptr %this1, i32 0, i32 5
  %32 = load double, ptr %b_49, align 8, !tbaa !70
  %fneg50 = fneg double %32
  %33 = load double, ptr %T.addr, align 8, !tbaa !12
  %34 = load double, ptr %t.addr, align 8, !tbaa !12
  %sub51 = fsub double %33, %34
  %mul52 = fmul double %fneg50, %sub51
  %call53 = call double @exp(double noundef %mul52) #13, !tbaa !48
  %b_54 = getelementptr inbounds nuw %"class.QuantLib::G2ForwardProcess", ptr %this1, i32 0, i32 5
  %35 = load double, ptr %b_54, align 8, !tbaa !70
  %fneg55 = fneg double %35
  %36 = load double, ptr %T.addr, align 8, !tbaa !12
  %a_57 = getelementptr inbounds nuw %"class.QuantLib::G2ForwardProcess", ptr %this1, i32 0, i32 3
  %37 = load double, ptr %a_57, align 8, !tbaa !68
  %38 = load double, ptr %t.addr, align 8, !tbaa !12
  %mul58 = fmul double %37, %38
  %neg = fneg double %mul58
  %39 = call double @llvm.fmuladd.f64(double %fneg55, double %36, double %neg)
  %a_59 = getelementptr inbounds nuw %"class.QuantLib::G2ForwardProcess", ptr %this1, i32 0, i32 3
  %40 = load double, ptr %a_59, align 8, !tbaa !68
  %b_60 = getelementptr inbounds nuw %"class.QuantLib::G2ForwardProcess", ptr %this1, i32 0, i32 5
  %41 = load double, ptr %b_60, align 8, !tbaa !70
  %add61 = fadd double %40, %41
  %42 = load double, ptr %s.addr, align 8, !tbaa !12
  %43 = call double @llvm.fmuladd.f64(double %add61, double %42, double %39)
  %call63 = call double @exp(double noundef %43) #13, !tbaa !48
  %sub64 = fsub double %call53, %call63
  %44 = load double, ptr %M, align 8, !tbaa !12
  %45 = call double @llvm.fmuladd.f64(double %div48, double %sub64, double %44)
  store double %45, ptr %M, align 8, !tbaa !12
  %46 = load double, ptr %M, align 8, !tbaa !12
  call void @llvm.lifetime.end.p0(i64 8, ptr %M) #13
  ret double %46
}